target datalayout = "e-m:e-p270:32:32-p271:32:32-p272:64:64-i64:64-i128:128-f80:128-n8:16:32:64-S128"
target triple = "x86_64-pc-linux-gnu"

%struct.evp_pkey_asn1_method_st = type { i32, i32, i64, ptr, ptr, ptr, ptr, ptr, ptr, ptr, ptr, ptr, ptr, ptr, ptr, ptr, ptr, ptr, ptr, ptr, ptr, ptr, ptr, ptr, ptr, ptr, ptr, ptr, ptr, ptr, ptr, ptr, ptr, ptr, ptr, ptr, ptr, ptr, ptr, ptr, ptr }
%struct.dh_st = type { i32, i32, %struct.ffc_params_st, i32, ptr, ptr, i32, ptr, %struct.CRYPTO_REF_COUNT, %struct.crypto_ex_data_st, ptr, ptr, ptr, ptr, i64 }
%struct.ffc_params_st = type { ptr, ptr, ptr, ptr, ptr, i64, i32, i32, i32, i32, i32, ptr, ptr, i32 }
%struct.CRYPTO_REF_COUNT = type { i32 }
%struct.crypto_ex_data_st = type { ptr, ptr }
%struct.asn1_string_st = type { i32, i32, ptr, i64 }
%struct.evp_pkey_st = type { i32, i32, ptr, ptr, ptr, %union.legacy_pkey_st, %union.legacy_pkey_st, %struct.CRYPTO_REF_COUNT, ptr, ptr, i32, i8, %struct.crypto_ex_data_st, ptr, ptr, i64, ptr, i64, %struct.anon }
%union.legacy_pkey_st = type { ptr }
%struct.anon = type { i32, i32, i32 }

@.str.11 = private unnamed_addr constant [32 x i8] c"../openssl/crypto/dh/dh_ameth.c\00", align 1
@__func__.dh_pub_encode = private unnamed_addr constant [14 x i8] c"dh_pub_encode\00", align 1

; Function Attrs: nounwind uwtable
define internal i32 @i2d_dhp(ptr noundef %0, ptr noundef %1, ptr noundef %2) #0 {
  %4 = alloca i32, align 4
  %5 = alloca ptr, align 8
  %6 = alloca ptr, align 8
  %7 = alloca ptr, align 8
  store ptr %0, ptr %5, align 8, !tbaa !32
  store ptr %1, ptr %6, align 8, !tbaa !3
  store ptr %2, ptr %7, align 8, !tbaa !59
  %8 = load ptr, ptr %5, align 8, !tbaa !32
  %9 = getelementptr inbounds nuw %struct.evp_pkey_st, ptr %8, i32 0, i32 2
  %10 = load ptr, ptr %9, align 8, !tbaa !44
  %11 = icmp eq ptr %10, @ossl_dhx_asn1_meth
  br i1 %11, label %12, label %16

12:                                               ; preds = %3
  %13 = load ptr, ptr %6, align 8, !tbaa !3
  %14 = load ptr, ptr %7, align 8, !tbaa !59
  %15 = call i32 @i2d_DHxparams(ptr noundef %13, ptr noundef %14)
  store i32 %15, ptr %4, align 4
  br label %20

16:                                               ; preds = %3
  %17 = load ptr, ptr %6, align 8, !tbaa !3
  %18 = load ptr, ptr %7, align 8, !tbaa !59
  %19 = call i32 @i2d_DHparams(ptr noundef %17, ptr noundef %18)
  store i32 %19, ptr %4, align 4
  br label %20

20:                                               ; preds = %16, %12
  %21 = load i32, ptr %4, align 4
  ret i32 %21
}

; Function Attrs: nounwind uwtable
define internal i32 @dh_pub_encode(ptr noundef %0, ptr noundef %1) #0 {
  %3 = alloca i32, align 4
  %4 = alloca ptr, align 8
  %5 = alloca ptr, align 8
  %6 = alloca ptr, align 8
  %7 = alloca i32, align 4
  %8 = alloca ptr, align 8
  %9 = alloca i32, align 4
  %10 = alloca ptr, align 8
  %11 = alloca ptr, align 8
  %12 = alloca i32, align 4
  store ptr %0, ptr %4, align 8, !tbaa !34
  store ptr %1, ptr %5, align 8, !tbaa !32
  call void @llvm.lifetime.start.p0(i64 8, ptr %6) #4
  call void @llvm.lifetime.start.p0(i64 4, ptr %7) #4
  call void @llvm.lifetime.start.p0(i64 8, ptr %8) #4
  store ptr null, ptr %8, align 8, !tbaa !27
  call void @llvm.lifetime.start.p0(i64 4, ptr %9) #4
  call void @llvm.lifetime.start.p0(i64 8, ptr %10) #4
  call void @llvm.lifetime.start.p0(i64 8, ptr %11) #4
  store ptr null, ptr %11, align 8, !tbaa !36
  %13 = load ptr, ptr %5, align 8, !tbaa !32
  %14 = getelementptr inbounds nuw %struct.evp_pkey_st, ptr %13, i32 0, i32 5
  %15 = load ptr, ptr %14, align 8, !tbaa !53
  store ptr %15, ptr %6, align 8, !tbaa !3
  %16 = call ptr @ASN1_STRING_new()
  store ptr %16, ptr %10, align 8, !tbaa !36
  %17 = load ptr, ptr %10, align 8, !tbaa !36
  %18 = icmp eq ptr %17, null
  br i1 %18, label %19, label %20

19:                                               ; preds = %2
  call void @ERR_new()
  call void @ERR_set_debug(ptr noundef @.str.11, i32 noundef 124, ptr noundef @__func__.dh_pub_encode)
  call void (i32, i32, ptr, ...) @ERR_set_error(i32 noundef 5, i32 noundef 524301, ptr noundef null)
  br label %64

20:                                               ; preds = %2
  %21 = load ptr, ptr %5, align 8, !tbaa !32
  %22 = load ptr, ptr %6, align 8, !tbaa !3
  %23 = load ptr, ptr %10, align 8, !tbaa !36
  %24 = getelementptr inbounds nuw %struct.asn1_string_st, ptr %23, i32 0, i32 2
  %25 = call i32 @i2d_dhp(ptr noundef %21, ptr noundef %22, ptr noundef %24)
  %26 = load ptr, ptr %10, align 8, !tbaa !36
  %27 = getelementptr inbounds nuw %struct.asn1_string_st, ptr %26, i32 0, i32 0
  store i32 %25, ptr %27, align 8, !tbaa !43
  %28 = load ptr, ptr %10, align 8, !tbaa !36
  %29 = getelementptr inbounds nuw %struct.asn1_string_st, ptr %28, i32 0, i32 0
  %30 = load i32, ptr %29, align 8, !tbaa !43
  %31 = icmp sle i32 %30, 0
  br i1 %31, label %32, label %33

32:                                               ; preds = %20
  call void @ERR_new()
  call void @ERR_set_debug(ptr noundef @.str.11, i32 noundef 129, ptr noundef @__func__.dh_pub_encode)
  call void (i32, i32, ptr, ...) @ERR_set_error(i32 noundef 5, i32 noundef 524301, ptr noundef null)
  br label %64

33:                                               ; preds = %20
  store i32 16, ptr %7, align 4, !tbaa !8
  %34 = load ptr, ptr %6, align 8, !tbaa !3
  %35 = getelementptr inbounds nuw %struct.dh_st, ptr %34, i32 0, i32 4
  %36 = load ptr, ptr %35, align 8, !tbaa !30
  %37 = call ptr @BN_to_ASN1_INTEGER(ptr noundef %36, ptr noundef null)
  store ptr %37, ptr %11, align 8, !tbaa !36
  %38 = load ptr, ptr %11, align 8, !tbaa !36
  %39 = icmp eq ptr %38, null
  br i1 %39, label %40, label %41

40:                                               ; preds = %33
  br label %64

41:                                               ; preds = %33
  %42 = load ptr, ptr %11, align 8, !tbaa !36
  %43 = call i32 @i2d_ASN1_INTEGER(ptr noundef %42, ptr noundef %8)
  store i32 %43, ptr %9, align 4, !tbaa !8
  %44 = load ptr, ptr %11, align 8, !tbaa !36
  call void @ASN1_INTEGER_free(ptr noundef %44)
  %45 = load i32, ptr %9, align 4, !tbaa !8
  %46 = icmp sle i32 %45, 0
  br i1 %46, label %47, label %48

47:                                               ; preds = %41
  call void @ERR_new()
  call void @ERR_set_debug(ptr noundef @.str.11, i32 noundef 143, ptr noundef @__func__.dh_pub_encode)
  call void (i32, i32, ptr, ...) @ERR_set_error(i32 noundef 5, i32 noundef 524301, ptr noundef null)
  br label %64

48:                                               ; preds = %41
  %49 = load ptr, ptr %4, align 8, !tbaa !34
  %50 = load ptr, ptr %5, align 8, !tbaa !32
  %51 = getelementptr inbounds nuw %struct.evp_pkey_st, ptr %50, i32 0, i32 2
  %52 = load ptr, ptr %51, align 8, !tbaa !44
  %53 = getelementptr inbounds nuw %struct.evp_pkey_asn1_method_st, ptr %52, i32 0, i32 0
  %54 = load i32, ptr %53, align 8, !tbaa !51
  %55 = call ptr @OBJ_nid2obj(i32 noundef %54)
  %56 = load i32, ptr %7, align 4, !tbaa !8
  %57 = load ptr, ptr %10, align 8, !tbaa !36
  %58 = load ptr, ptr %8, align 8, !tbaa !27
  %59 = load i32, ptr %9, align 4, !tbaa !8
  %60 = call i32 @X509_PUBKEY_set0_param(ptr noundef %49, ptr noundef %55, i32 noundef %56, ptr noundef %57, ptr noundef %58, i32 noundef %59)
  %61 = icmp ne i32 %60, 0
  br i1 %61, label %62, label %63

62:                                               ; preds = %48
  store i32 1, ptr %3, align 4
  store i32 1, ptr %12, align 4
  br label %67

63:                                               ; preds = %48
  br label %64

64:                                               ; preds = %63, %47, %40, %32, %19
  %65 = load ptr, ptr %8, align 8, !tbaa !27
  call void @CRYPTO_free(ptr noundef %65, ptr noundef @.str.11, i32 noundef 152)
  %66 = load ptr, ptr %10, align 8, !tbaa !36
  call void @ASN1_STRING_free(ptr noundef %66)
  store i32 0, ptr %3, align 4
  store i32 1, ptr %12, align 4
  br label %67

67:                                               ; preds = %64, %62
  call void @llvm.lifetime.end.p0(i64 8, ptr %11) #4
  call void @llvm.lifetime.end.p0(i64 8, ptr %10) #4
  call void @llvm.lifetime.end.p0(i64 4, ptr %9) #4
  call void @llvm.lifetime.end.p0(i64 8, ptr %8) #4
  call void @llvm.lifetime.end.p0(i64 4, ptr %7) #4
  call void @llvm.lifetime.end.p0(i64 8, ptr %6) #4
  %68 = load i32, ptr %3, align 4
  ret i32 %68
}