; Function Attrs: nounwind uwtable
define internal range(i32 0, 2) i32 @dh_pub_encode(ptr noundef %0, ptr noundef readonly captures(none) %1) #0 {
  %3 = alloca ptr, align 8
  call void @llvm.lifetime.start.p0(i64 8, ptr nonnull %3) #5
  store ptr null, ptr %3, align 8, !tbaa !31
  %4 = getelementptr inbounds nuw i8, ptr %1, i64 32
  %5 = load ptr, ptr %4, align 8, !tbaa !42
  %6 = tail call ptr @ASN1_STRING_new() #5
  %7 = icmp eq ptr %6, null
  br i1 %7, label %8, label %9

8:                                                ; preds = %2
  tail call void @ERR_new() #5
  tail call void @ERR_set_debug(ptr noundef nonnull @.str.11, i32 noundef 124, ptr noundef nonnull @__func__.dh_pub_encode) #5
  tail call void (i32, i32, ptr, ...) @ERR_set_error(i32 noundef 5, i32 noundef 524301, ptr noundef null) #5
  br label %34

9:                                                ; preds = %2
  %10 = getelementptr inbounds nuw i8, ptr %6, i64 8
  %11 = getelementptr i8, ptr %1, i64 8
  %.val = load ptr, ptr %11, align 8, !tbaa !33
  %12 = icmp eq ptr %.val, @ossl_dhx_asn1_meth
  br i1 %12, label %13, label %15

13:                                               ; preds = %9
  %14 = tail call i32 @i2d_DHxparams(ptr noundef %5, ptr noundef nonnull %10) #5
  br label %i2d_dhp.exit

15:                                               ; preds = %9
  %16 = tail call i32 @i2d_DHparams(ptr noundef %5, ptr noundef nonnull %10) #5
  br label %i2d_dhp.exit

i2d_dhp.exit:                                     ; preds = %13, %15
  %.0.i = phi i32 [ %14, %13 ], [ %16, %15 ]
  store i32 %.0.i, ptr %6, align 8, !tbaa !32
  %17 = icmp slt i32 %.0.i, 1
  br i1 %17, label %18, label %19

18:                                               ; preds = %i2d_dhp.exit
  tail call void @ERR_new() #5
  tail call void @ERR_set_debug(ptr noundef nonnull @.str.11, i32 noundef 129, ptr noundef nonnull @__func__.dh_pub_encode) #5
  tail call void (i32, i32, ptr, ...) @ERR_set_error(i32 noundef 5, i32 noundef 524301, ptr noundef null) #5
  br label %34

19:                                               ; preds = %i2d_dhp.exit
  %20 = getelementptr inbounds nuw i8, ptr %5, i64 112
  %21 = load ptr, ptr %20, align 8, !tbaa !23
  %22 = tail call ptr @BN_to_ASN1_INTEGER(ptr noundef %21, ptr noundef null) #5
  %23 = icmp eq ptr %22, null
  br i1 %23, label %34, label %24

24:                                               ; preds = %19
  %25 = call i32 @i2d_ASN1_INTEGER(ptr noundef nonnull %22, ptr noundef nonnull %3) #5
  call void @ASN1_INTEGER_free(ptr noundef nonnull %22) #5
  %26 = icmp slt i32 %25, 1
  br i1 %26, label %27, label %28

27:                                               ; preds = %24
  call void @ERR_new() #5
  call void @ERR_set_debug(ptr noundef nonnull @.str.11, i32 noundef 143, ptr noundef nonnull @__func__.dh_pub_encode) #5
  call void (i32, i32, ptr, ...) @ERR_set_error(i32 noundef 5, i32 noundef 524301, ptr noundef null) #5
  br label %34

28:                                               ; preds = %24
  %29 = load ptr, ptr %11, align 8, !tbaa !33
  %30 = load i32, ptr %29, align 8, !tbaa !40
  %31 = call ptr @OBJ_nid2obj(i32 noundef %30) #5
  %32 = load ptr, ptr %3, align 8, !tbaa !31
  %33 = call i32 @X509_PUBKEY_set0_param(ptr noundef %0, ptr noundef %31, i32 noundef 16, ptr noundef nonnull %6, ptr noundef %32, i32 noundef %25) #5
  %.not = icmp eq i32 %33, 0
  br i1 %.not, label %34, label %36

34:                                               ; preds = %28, %19, %27, %18, %8
  %35 = load ptr, ptr %3, align 8, !tbaa !31
  call void @CRYPTO_free(ptr noundef %35, ptr noundef nonnull @.str.11, i32 noundef 152) #5
  call void @ASN1_STRING_free(ptr noundef %6) #5
  br label %36

36:                                               ; preds = %28, %34
  %.0 = phi i32 [ 0, %34 ], [ 1, %28 ]
  call void @llvm.lifetime.end.p0(i64 8, ptr nonnull %3) #5
  ret i32 %.0
}